; Function Attrs: nounwind uwtable
define void @lv_image_cache_dump() local_unnamed_addr #0 {
  %1 = load ptr, ptr getelementptr inbounds nuw (i8, ptr @lv_global, i64 520), align 8, !tbaa !3
  %2 = tail call ptr @lv_cache_iter_create(ptr noundef %1) #4
  %3 = icmp eq ptr %2, null
  br i1 %3, label %5, label %4

4:                                                ; preds = %0
  tail call void @lv_iter_inspect(ptr noundef nonnull %2, ptr noundef nonnull @iter_inspect_cb) #4
  br label %5

5:                                                ; preds = %0, %4
  ret void
}